; ModuleID = 'source-C-CXX/44/155.c'
source_filename = "source-C-CXX/44/155.c"
target datalayout = "e-m:e-p270:32:32-p271:32:32-p272:64:64-i64:64-f80:128-n8:16:32:64-S128"
target triple = "x86_64-pc-linux-gnu"

@.str = private unnamed_addr constant [3 x i8] c"%s\00", align 1
@.str.1 = private unnamed_addr constant [3 x i8] c"%d\00", align 1

; Function Attrs: nounwind sspstrong uwtable
define dso_local i32 @main() local_unnamed_addr #0 {
  %1 = alloca [50 x i8], align 16
  %2 = alloca [50 x i8], align 16
  %3 = getelementptr inbounds [50 x i8], [50 x i8]* %1, i64 0, i64 0
  call void @llvm.lifetime.start.p0i8(i64 50, i8* nonnull %3) #5
  %4 = getelementptr inbounds [50 x i8], [50 x i8]* %2, i64 0, i64 0
  call void @llvm.lifetime.start.p0i8(i64 50, i8* nonnull %4) #5
  %5 = call i32 (i8*, ...) @__isoc99_scanf(i8* getelementptr inbounds ([3 x i8], [3 x i8]* @.str, i64 0, i64 0), i8* nonnull %3)
  %6 = call i32 (i8*, ...) @__isoc99_scanf(i8* getelementptr inbounds ([3 x i8], [3 x i8]* @.str, i64 0, i64 0), i8* nonnull %4)
  %7 = call i64 @strlen(i8* noundef nonnull %3) #6
  %8 = trunc i64 %7 to i32
  %9 = call i64 @strlen(i8* noundef nonnull %4) #6
  %10 = trunc i64 %9 to i32
  %11 = icmp eq i32 %8, 1
  br i1 %11, label %26, label %12

12:                                               ; preds = %0
  %13 = sub i32 1, %8
  %14 = add i32 %13, %10
  %15 = load i8, i8* %3, align 16
  %16 = add i64 %7, 4294967295
  %17 = shl i64 %7, 32
  %18 = add i64 %17, -4294967296
  %19 = ashr exact i64 %18, 32
  %20 = getelementptr inbounds [50 x i8], [50 x i8]* %1, i64 0, i64 %19
  %21 = icmp slt i32 %14, 0
  br i1 %21, label %62, label %22

22:                                               ; preds = %12
  %23 = add i64 %9, 2
  %24 = sub i64 %23, %7
  %25 = and i64 %24, 4294967295
  br label %43

26:                                               ; preds = %0
  %27 = icmp slt i32 %10, 0
  br i1 %27, label %62, label %28

28:                                               ; preds = %26
  %29 = add i64 %9, 1
  %30 = and i64 %29, 4294967295
  br label %31

31:                                               ; preds = %28, %40
  %32 = phi i64 [ 0, %28 ], [ %41, %40 ]
  %33 = getelementptr inbounds [50 x i8], [50 x i8]* %2, i64 0, i64 %32
  %34 = load i8, i8* %33, align 1, !tbaa !5
  %35 = load i8, i8* %3, align 16, !tbaa !5
  %36 = icmp eq i8 %34, %35
  br i1 %36, label %37, label %40

37:                                               ; preds = %31
  %38 = trunc i64 %32 to i32
  %39 = call i32 (i8*, ...) @printf(i8* nonnull dereferenceable(1) getelementptr inbounds ([3 x i8], [3 x i8]* @.str.1, i64 0, i64 0), i32 %38)
  br label %40

40:                                               ; preds = %31, %37
  %41 = add nuw nsw i64 %32, 1
  %42 = icmp eq i64 %41, %30
  br i1 %42, label %62, label %31, !llvm.loop !8

43:                                               ; preds = %22, %59
  %44 = phi i64 [ 0, %22 ], [ %60, %59 ]
  %45 = getelementptr inbounds [50 x i8], [50 x i8]* %2, i64 0, i64 %44
  %46 = load i8, i8* %45, align 1, !tbaa !5
  %47 = icmp eq i8 %46, %15
  br i1 %47, label %48, label %59

48:                                               ; preds = %43
  %49 = add i64 %16, %44
  %50 = shl i64 %49, 32
  %51 = ashr exact i64 %50, 32
  %52 = getelementptr inbounds [50 x i8], [50 x i8]* %2, i64 0, i64 %51
  %53 = load i8, i8* %52, align 1, !tbaa !5
  %54 = load i8, i8* %20, align 1, !tbaa !5
  %55 = icmp eq i8 %53, %54
  br i1 %55, label %56, label %59

56:                                               ; preds = %48
  %57 = trunc i64 %44 to i32
  %58 = call i32 (i8*, ...) @printf(i8* nonnull dereferenceable(1) getelementptr inbounds ([3 x i8], [3 x i8]* @.str.1, i64 0, i64 0), i32 %57)
  call void @exit(i32 0) #7
  unreachable

59:                                               ; preds = %43, %48
  %60 = add nuw nsw i64 %44, 1
  %61 = icmp eq i64 %60, %25
  br i1 %61, label %62, label %43, !llvm.loop !10

62:                                               ; preds = %59, %40, %12, %26
  call void @llvm.lifetime.end.p0i8(i64 50, i8* nonnull %4) #5
  call void @llvm.lifetime.end.p0i8(i64 50, i8* nonnull %3) #5
  ret i32 0
}

; Function Attrs: argmemonly mustprogress nofree nosync nounwind willreturn
declare void @llvm.lifetime.start.p0i8(i64 immarg, i8* nocapture) #1

; Function Attrs: nofree nounwind
declare noundef i32 @__isoc99_scanf(i8* nocapture noundef readonly, ...) local_unnamed_addr #2

; Function Attrs: argmemonly mustprogress nofree nounwind readonly willreturn
declare i64 @strlen(i8* nocapture) local_unnamed_addr #3

; Function Attrs: nofree nounwind
declare noundef i32 @printf(i8* nocapture noundef readonly, ...) local_unnamed_addr #2

; Function Attrs: noreturn nounwind
declare void @exit(i32) local_unnamed_addr #4

; Function Attrs: argmemonly mustprogress nofree nosync nounwind willreturn
declare void @llvm.lifetime.end.p0i8(i64 immarg, i8* nocapture) #1


!llvm.module.flags = !{!0, !1, !2, !3}
!llvm.ident = !{!4}

!0 = !{i32 1, !"wchar_size", i32 4}
!1 = !{i32 7, !"PIC Level", i32 2}
!2 = !{i32 7, !"PIE Level", i32 2}
!3 = !{i32 7, !"uwtable", i32 1}
!4 = !{!"clang version 13.0.0"}
!5 = !{!6, !6, i64 0}
!6 = !{!"omnipotent char", !7, i64 0}
!7 = !{!"Simple C/C++ TBAA"}
!8 = distinct !{!8, !9}
!9 = !{!"llvm.loop.mustprogress"}
!10 = distinct !{!10, !9}
